 ds7

 Timestamp is 433f73d6 (Sun Oct 02 13:44:54 2005)

 Preferred load address is 00010000

 Start         Length     Name                   Class
 0001:00000000 000000f4H .idata$5                CODE
 0001:00000100 0000069aH .rdata                  CODE
 0001:0000079c 00000048H .rdata$debug            CODE
 0001:000007f0 0000dcf4H .text                   CODE
 0001:0000e4f0 0000002fH .text$yc                CODE
 0001:0000e520 0000000fH .text$yd                CODE
 0002:00000000 00000170H .data                   DATA
 0002:00000170 0000047dH .bss                    DATA
 0003:00000000 00000004H .CRT$XCA                DATA
 0003:00000004 00000004H .CRT$XCU                DATA
 0003:00000008 00000004H .CRT$XCZ                DATA
 0004:00000000 00000004H .STL$A                  DATA
 0004:00000004 00000004H .STL$L                  DATA
 0004:00000008 00000004H .STL$M                  DATA
 0004:0000000c 00000004H .STL$Z                  DATA
 0005:00000000 00001a19H PAGE                    CODE
 0006:00000000 00000786H INIT                    CODE
 0006:00000788 0000003cH .idata$2                CODE
 0006:000007c4 00000014H .idata$3                CODE
 0006:000007d8 000000f4H .idata$4                CODE
 0006:000008cc 000004e6H .idata$6                CODE
 0007:00000000 00000058H .rsrc$01                DATA
 0007:00000060 00000308H .rsrc$02                DATA

  Address         Publics by Value              Rva+Base     Lib:Object

 0001:00000000       __imp_@KfAcquireSpinLock@4 00010320     wdm:HAL.DLL
 0001:00000004       __imp_@KfReleaseSpinLock@8 00010324     wdm:HAL.DLL
 0001:00000008       __imp__KeGetCurrentIrql@0  00010328     wdm:HAL.DLL
 0001:0000000c       \177HAL_NULL_THUNK_DATA    0001032c     wdm:HAL.DLL
 0001:00000010       __imp__ZwClose@4           00010330     wdm:NTOSKRNL.EXE
 0001:00000014       __imp__RtlAssert@16        00010334     wdm:NTOSKRNL.EXE
 0001:00000018       __imp__PoSetPowerState@12  00010338     wdm:NTOSKRNL.EXE
 0001:0000001c       __imp__PoStartNextPowerIrp@4 0001033c     wdm:NTOSKRNL.EXE
 0001:00000020       __imp__IoFreeMdl@4         00010340     wdm:NTOSKRNL.EXE
 0001:00000024       __imp_@IofCompleteRequest@8 00010344     wdm:NTOSKRNL.EXE
 0001:00000028       __imp__PoCallDriver@8      00010348     wdm:NTOSKRNL.EXE
 0001:0000002c       __imp_@IofCallDriver@8     0001034c     wdm:NTOSKRNL.EXE
 0001:00000030       __imp_@KefReleaseSpinLockFromDpcLevel@4 00010350     wdm:NTOSKRNL.EXE
 0001:00000034       __imp_@KefAcquireSpinLockAtDpcLevel@4 00010354     wdm:NTOSKRNL.EXE
 0001:00000038       __imp__KeRemoveEntryDeviceQueue@8 00010358     wdm:NTOSKRNL.EXE
 0001:0000003c       __imp__RtlInitAnsiString@8 0001035c     wdm:NTOSKRNL.EXE
 0001:00000040       __imp_@ObfDereferenceObject@4 00010360     wdm:NTOSKRNL.EXE
 0001:00000044       __imp__memmove             00010364     wdm:NTOSKRNL.EXE
 0001:00000048       __imp__strchr              00010368     wdm:NTOSKRNL.EXE
 0001:0000004c       __imp___vsnprintf          0001036c     wdm:NTOSKRNL.EXE
 0001:00000050       __imp__DbgPrint            00010370     wdm:NTOSKRNL.EXE
 0001:00000054       __imp_@InterlockedIncrement@4 00010374     wdm:NTOSKRNL.EXE
 0001:00000058       __imp_@InterlockedDecrement@4 00010378     wdm:NTOSKRNL.EXE
 0001:0000005c       __imp__ExFreePool@4        0001037c     wdm:NTOSKRNL.EXE
 0001:00000060       __imp__RtlAppendUnicodeStringToString@8 00010380     wdm:NTOSKRNL.EXE
 0001:00000064       __imp__ZwOpenKey@12        00010384     wdm:NTOSKRNL.EXE
 0001:00000068       __imp__ExAllocatePoolWithTag@12 00010388     wdm:NTOSKRNL.EXE
 0001:0000006c       __imp__ZwQueryValueKey@24  0001038c     wdm:NTOSKRNL.EXE
 0001:00000070       __imp__IoDeleteDevice@4    00010390     wdm:NTOSKRNL.EXE
 0001:00000074       __imp__IoDeleteSymbolicLink@4 00010394     wdm:NTOSKRNL.EXE
 0001:00000078       __imp__IoCreateSymbolicLink@8 00010398     wdm:NTOSKRNL.EXE
 0001:0000007c       __imp__IoCreateDevice@28   0001039c     wdm:NTOSKRNL.EXE
 0001:00000080       __imp__IoAttachDeviceToDeviceStack@8 000103a0     wdm:NTOSKRNL.EXE
 0001:00000084       __imp__RtlIntegerToUnicodeString@12 000103a4     wdm:NTOSKRNL.EXE
 0001:00000088       __imp__IoAllocateIrp@8     000103a8     wdm:NTOSKRNL.EXE
 0001:0000008c       __imp__IoFreeIrp@4         000103ac     wdm:NTOSKRNL.EXE
 0001:00000090       __imp_@InterlockedExchange@8 000103b0     wdm:NTOSKRNL.EXE
 0001:00000094       __imp__RtlFreeUnicodeString@4 000103b4     wdm:NTOSKRNL.EXE
 0001:00000098       __imp__KeWaitForSingleObject@20 000103b8     wdm:NTOSKRNL.EXE
 0001:0000009c       __imp__KeReleaseMutex@8    000103bc     wdm:NTOSKRNL.EXE
 0001:000000a0       __imp__IoDetachDevice@4    000103c0     wdm:NTOSKRNL.EXE
 0001:000000a4       __imp__IoAcquireCancelSpinLock@4 000103c4     wdm:NTOSKRNL.EXE
 0001:000000a8       __imp__IoReleaseCancelSpinLock@4 000103c8     wdm:NTOSKRNL.EXE
 0001:000000ac       __imp__KeClearEvent@4      000103cc     wdm:NTOSKRNL.EXE
 0001:000000b0       __imp__KeSetEvent@12       000103d0     wdm:NTOSKRNL.EXE
 0001:000000b4       __imp__PoRequestPowerIrp@24 000103d4     wdm:NTOSKRNL.EXE
 0001:000000b8       __imp__IoCancelIrp@4       000103d8     wdm:NTOSKRNL.EXE
 0001:000000bc       __imp__IoRegisterDeviceInterface@16 000103dc     wdm:NTOSKRNL.EXE
 0001:000000c0       __imp__IoSetDeviceInterfaceState@8 000103e0     wdm:NTOSKRNL.EXE
 0001:000000c4       __imp__KeInitializeSpinLock@4 000103e4     wdm:NTOSKRNL.EXE
 0001:000000c8       __imp__DbgBreakPoint@0     000103e8     wdm:NTOSKRNL.EXE
 0001:000000cc       __imp__ZwCreateKey@28      000103ec     wdm:NTOSKRNL.EXE
 0001:000000d0       __imp__IoGetDeviceObjectPointer@16 000103f0     wdm:NTOSKRNL.EXE
 0001:000000d4       __imp__IoBuildDeviceIoControlRequest@36 000103f4     wdm:NTOSKRNL.EXE
 0001:000000d8       __imp__KeInitializeEvent@12 000103f8     wdm:NTOSKRNL.EXE
 0001:000000dc       __imp__KeInitializeMutex@8 000103fc     wdm:NTOSKRNL.EXE
 0001:000000e0       __imp__RtlInitUnicodeString@8 00010400     wdm:NTOSKRNL.EXE
 0001:000000e4       \177NTOSKRNL_NULL_THUNK_DATA 00010404     wdm:NTOSKRNL.EXE
 0001:000000e8       __imp__USBD_ParseConfigurationDescriptorEx@28 00010408     usbd:USBD.SYS
 0001:000000ec       __imp__USBD_CreateConfigurationRequestEx@8 0001040c     usbd:USBD.SYS
 0001:000000f0       \177USBD_NULL_THUNK_DATA   00010410     usbd:USBD.SYS
 0001:0000011c       ??_C@_0DF@OLKBFMKE@DriverWorks?5?$CIc?$CJ?5Copyright?51998?5C@ 0001043c     Ds7.obj
 0001:00000154       ??_7Ds7@@6B@               00010474     Ds7.obj
 0001:00000168       ??_7KDriver@@6B@           00010488     Ds7.obj
 0001:0000017c       ??_C@_0BL@NNGFNHOB@m_Irp?9?$DOCurrentLocation?5?$DO?51?$AA@ 0001049c     Ds7.obj
 0001:00000198       ??_C@_0CM@FADDDCMO@m_Irp?9?$DOCurrentLocation?5?$DM?$DN?5m_Irp?9@ 000104b8     Ds7.obj
 0001:000001c4       ??_C@_0DK@DFEDBPMP@C?3?2PROGRA?$HO1?2Compuware?2SOFTIC?$HO1?2D@ 000104e4     Ds7.obj
 0001:00000200       ??_C@_02DKCKIIND@?$CFs?$AA@ 00010520     Ds7.obj
 0001:00000204       ??_C@_02GMHACPFF@?$CFu?$AA@ 00010524     Ds7.obj
 0001:00000208       ??_C@_07KFGDNAFA@0x?$CF08lx?$AA@ 00010528     Ds7.obj
 0001:00000210       ??_7Ds7Device@@6B@         00010530     Ds7Device.obj
 0001:00000338       ??_C@_05MAJJAKPI@FALSE?$AA@ 00010658     Ds7Device.obj
 0001:00000340       ??_C@_0DN@KKBPKDBC@C?3?2PROGRA?$HO1?2Compuware?2SOFTIC?$HO1?2D@ 00010660     Ds7Device.obj
 0001:00000380       ??_C@_0CG@IJCOJOJN@I?4MajorFunction?$CINEXT?$CJ?5?$DN?$DN?5IRP_MJ_@ 000106a0     Ds7Device.obj
 0001:000003a8       ??_C@_0DN@BEPLIHAM@C?3?2PROGRA?$HO1?2Compuware?2SOFTIC?$HO1?2D@ 000106c8     Ds7Device.obj
 0001:000003e8       ??_C@_0BJ@EEIAGBLF@STATUS_SUCCESS?5?$DN?$DN?5status?$AA@ 00010708     Ds7Device.obj
 0001:00000404       ??_C@_0DK@IGCHGLIL@C?3?2PROGRA?$HO1?2Compuware?2SOFTIC?$HO1?2D@ 00010724     Ds7Device.obj
 0001:00000440       ??_7?$KList@UPreconfiguredInterfaceListEntry@@@@6B@ 00010760     Ds7Device.obj
 0001:00000448       ??_C@_0O@POOHMCJG@m_Information?$AA@ 00010768     Ds7Device.obj
 0001:00000458       ??_C@_0BP@FOJMAONH@m_pInterface?9?$DOUsbLowerDevice?$CI?$CJ?$AA@ 00010778     Ds7Device.obj
 0001:00000478       ??_C@_0N@IPBKEKHN@m_pInterface?$AA@ 00010798     Ds7Device.obj
 0001:00000488       ??_C@_0BG@JDJJKHKJ@m_IntfArray?4IsValid?$CI?$CJ?$AA@ 000107a8     Ds7Device.obj
 0001:000004a0       ??_C@_0BE@HGMFHLDM@?4?2?4?4?2include?2kirp?4h?$AA@ 000107c0     vdw_wdm:ktrace.obj
 0001:000004b8       ??_7KDevice@@6B@           000107d8     vdw_wdm:kdevice.obj
 0001:0000053c       ??_C@_0BH@BINHOGGO@?4?2?4?4?2include?2kdevice?4h?$AA@ 0001085c     vdw_wdm:kdevice.obj
 0001:00000558       ??_7KPnpDevice@@6B@        00010878     vdw_wdm:kpnpdev.obj
 0001:00000680       ??_C@_0O@KBDMFNDM@m_pdq?5?$CB?$DN?5NULL?$AA@ 000109a0     vdw_wdm:kpnpdev.obj
 0001:00000690       ??_C@_0BH@BIPCAELK@?4?2?4?4?2include?2kdevque?4h?$AA@ 000109b0     vdw_wdm:kpnpdev.obj
 0001:000006a8       ??_C@_0DN@BBDLMDMH@?$CIOnSuccess?$CJ?5?$HM?5?$CIOnError?$CJ?5?$HM?5?$CIOnCan@ 000109c8     vdw_wdm:kpnpdev.obj
 0001:000006e8       ??_C@_0BH@LIGMDPNJ@?4?2?4?4?2include?2kpnplow?4h?$AA@ 00010a08     vdw_wdm:kpnpdev.obj
 0001:00000700       ??_7?$KList@UINTERFACE_LIST_ENTRY@@@@6B@ 00010a20     vdw_wdm:kpnpdev.obj
 0001:00000708       ??_C@_0BE@MFKBAPHI@?4?2?4?4?2include?2kusb?4h?$AA@ 00010a28     vdw_wdm:kusb.obj
 0001:0000071c       ??_C@_0CP@BILNFILA@?$CIunsigned?$CJIndex?5?$DM?5m_Information?9@ 00010a3c     vdw_wdm:kusb.obj
 0001:0000074c       ??_C@_09CEDEMLBJ@IsValid?$CI?$CJ?$AA@ 00010a6c     vdw_wdm:kusb.obj
 0001:00000758       ??_C@_0CJ@MEJCFGOE@?$CIindex?5?$DO?$DN?50?$CJ?5?$CG?$CG?5?$CIindex?5?$DM?$DN?5m_MaxI@ 00010a78     vdw_wdm:kusb.obj
 0001:00000784       ??_C@_0BG@IHPIGIBH@?4?2?4?4?2include?2karray?4h?$AA@ 00010aa4     vdw_wdm:kusb.obj
 0001:00000870       ?AddDevice@Ds7@@UAEJPAU_DEVICE_OBJECT@@@Z 00010b90 f   Ds7.obj
 0001:000009d0       ??2@YAPAXI@Z               00010cf0 f i Ds7.obj
 0001:00000a00       ??2@YAPAXIW4_POOL_TYPE@@@Z 00010d20 f i Ds7.obj
 0001:00000a40       ??1KUnitizedName@@QAE@XZ   00010d60 f i Ds7.obj
 0001:00000a70       ??1KRegistryKey@@QAE@XZ    00010d90 f i Ds7.obj
 0001:00000aa0       ?IsValid@KUstring@@QAEEXZ  00010dc0 f i vdw_wdm:kregkey.obj
 0001:00000aa0       ?IsValid@KDispatcherObject@@QAEEXZ 00010dc0 f i vdw_wdm:kpnpdev.obj
 0001:00000aa0       ?IsValid@KRegistryKey@@QAEEXZ 00010dc0 f i Ds7.obj
 0001:00000ac0       ?Invalidate@KRegistryKey@@QAEXXZ 00010de0 f i Ds7.obj
 0001:00000af0       ?ConstructorStatus@KDevice@@QAEJXZ 00010e10 f i Ds7.obj
 0001:00000b10       ?_self_delete@KDriver@@EAEXXZ 00010e30 f i Ds7.obj
 0001:00000b50       ??_GKDriver@@QAEPAXI@Z     00010e70 f i Ds7.obj
 0001:00000b80       ??1KDriver@@QAE@XZ         00010ea0 f i Ds7.obj
 0001:00000bd0       ?DriverInstance@KDriver@@SGPAV1@XZ 00010ef0 f i Ds7.obj
 0001:00000be0       ?AddDeviceDispatch@KDriver@@KGJPAU_DRIVER_OBJECT@@PAU_DEVICE_OBJECT@@@Z 00010f00 f   Ds7.obj
 0001:00000c40       ?DriverIrpDispatch@KDriver@@SGJPAU_DEVICE_OBJECT@@PAU_IRP@@@Z 00010f60 f   Ds7.obj
 0001:00000ce0       ??0KIrp@@QAE@PAU_IRP@@@Z   00011000 f i Ds7.obj
 0001:00000d00       ?MajorFunction@KIrp@@QAEAAEW4EStackLocation@@@Z 00011020 f i Ds7.obj
 0001:00000d40       ?ValidateStackLocation@KIrp@@QAEXW4EStackLocation@@@Z 00011060 f i Ds7.obj
 0001:00000dd0       ?DispatchFilter@KDriver@@UAEJPAVKDevice@@VKIrp@@P82@AEJ1@Z@Z 000110f0 f   Ds7.obj
 0001:00000e46       __purecall                 00011166 f   Ds7.obj
 0001:00000e80       ?DriverObject@KDriver@@QAEPAU_DRIVER_OBJECT@@XZ 000111a0 f i Ds7.obj
 0001:00000e80       ??BKEvent@@QAEPAU_KEVENT@@XZ 000111a0 f i vdw_wdm:klower.obj
 0001:00000e80       ?Object@KDispatcherObject@@QAEPAXXZ 000111a0 f i vdw_wdm:klower.obj
 0001:00000ea0       ??6KTrace@@QAEAAV0@PBD@Z   000111c0 f i Ds7.obj
 0001:00000ed0       ??6KTrace@@QAEAAV0@K@Z     000111f0 f i Ds7.obj
 0001:00000f20       ?ReportNewDevicePowerState@KPnpDevice@@QAE?AT_POWER_STATE@@W4_DEVICE_POWER_STATE@@@Z 00011240 f i Ds7.obj
 0001:00000f70       ?_self_delete@Ds7@@EAEXXZ  00011290 f i Ds7.obj
 0001:00000fb0       ??_GDs7@@QAEPAXI@Z         000112d0 f i Ds7.obj
 0001:00000fe0       ??1Ds7@@QAE@XZ             00011300 f i Ds7.obj
 0001:00001000       ??_GDs7Device@@QAEPAXI@Z   00011320 f i Ds7.obj
 0001:0000105d       ??0Ds7Device@@QAE@PAU_DEVICE_OBJECT@@K@Z 0001137d f   Ds7Device.obj
 0001:000011af       ??1Ds7Device@@QAE@XZ       000114cf f   Ds7Device.obj
 0001:000014a0       ?PNPMinorFunctionName@@YGPADK@Z 000117c0 f   Ds7Device.obj
 0001:000014fc       ?DefaultPnp@Ds7Device@@UAEJVKIrp@@@Z 0001181c f   Ds7Device.obj
 0001:00001582       ?DefaultPower@Ds7Device@@UAEJVKIrp@@@Z 000118a2 f   Ds7Device.obj
 0001:000015f3       ?SystemControl@Ds7Device@@UAEJVKIrp@@@Z 00011913 f   Ds7Device.obj
 0001:0000176f       ?OnStartDevice@Ds7Device@@UAEJVKIrp@@@Z 00011a8f f   Ds7Device.obj
 0001:000018c2       ?OnStopDevice@Ds7Device@@UAEJVKIrp@@@Z 00011be2 f   Ds7Device.obj
 0001:00001924       ?OnRemoveDevice@Ds7Device@@UAEJVKIrp@@@Z 00011c44 f   Ds7Device.obj
 0001:00001975       ?OnDevicePowerUp@Ds7Device@@UAEJVKIrp@@@Z 00011c95 f   Ds7Device.obj
 0001:000019c3       ?OnDeviceSleep@Ds7Device@@UAEJVKIrp@@@Z 00011ce3 f   Ds7Device.obj
 0001:00001a32       ?Create@Ds7Device@@UAEJVKIrp@@@Z 00011d52 f   Ds7Device.obj
 0001:00001aed       ?Close@Ds7Device@@UAEJVKIrp@@@Z 00011e0d f   Ds7Device.obj
 0001:00001b77       ?CleanUp@Ds7Device@@UAEJVKIrp@@@Z 00011e97 f   Ds7Device.obj
 0001:00001c12       ?Read@Ds7Device@@UAEJVKIrp@@@Z 00011f32 f   Ds7Device.obj
 0001:00001e40       ?ReadComplete@Ds7Device@@QAGJVKIrp@@PAUUSB_COMPLETION_INFO@@@Z 00012160 f   Ds7Device.obj
 0001:00001f52       ?Write@Ds7Device@@UAEJVKIrp@@@Z 00012272 f   Ds7Device.obj
 0001:00002177       ?WriteComplete@Ds7Device@@QAGJVKIrp@@PAUUSB_COMPLETION_INFO@@@Z 00012497 f   Ds7Device.obj
 0001:00002259       ?DeviceControl@Ds7Device@@UAEJVKIrp@@@Z 00012579 f   Ds7Device.obj
 0001:00002310       ?DS7_IOCTL_800_Handler@Ds7Device@@QAEJVKIrp@@@Z 00012630 f   Ds7Device.obj
 0001:00002360       ?Status@KIrp@@QAEAAJXZ     00012680 f i Ds7Device.obj
 0001:00002380       ?Information@KIrp@@QAEAAKXZ 000126a0 f i Ds7Device.obj
 0001:000023a0       ?ForceReuseOfCurrentStackLocationInCalldown@KIrp@@QAEXXZ 000126c0 f i Ds7Device.obj
 0001:000023e0       ?MarkPending@KIrp@@QAEXXZ  00012700 f i Ds7Device.obj
 0001:00002410       ?Mdl@KIrp@@QAEAAPAU_MDL@@XZ 00012730 f i Ds7Device.obj
 0001:00002430       ?MinorFunction@KIrp@@QAEAAEW4EStackLocation@@@Z 00012750 f i Ds7Device.obj
 0001:00002470       ?CopyParametersDown@KIrp@@QAEXXZ 00012790 f i Ds7Device.obj
 0001:000024d0       ?IndicatePowerIrpProcessed@KIrp@@QAEXXZ 000127f0 f i Ds7Device.obj
 0001:000024f0       ??1KMemory@@QAE@XZ         00012810 f i Ds7Device.obj
 0001:00002520       ?IsValid@KUnitizedName@@QAEEXZ 00012840 f i Ds7.obj
 0001:00002520       ?IsValid@KDeviceQueue@@QAEEXZ 00012840 f i vdw_wdm:kpnpdev.obj
 0001:00002520       ?IsValid@KMemory@@QAEEXZ   00012840 f i Ds7Device.obj
 0001:00002540       ??0KMemory@@QAE@PAU_MDL@@@Z 00012860 f i Ds7Device.obj
 0001:00002560       ?Invalidate@KMemory@@QAEXXZ 00012880 f i Ds7Device.obj
 0001:000025a0       ?CreateClose@KDevice@@UAEJVKIrp@@@Z 000128c0 f i Ds7Device.obj
 0001:000025f0       ?Complete@KIrp@@QAEJJD@Z   00012910 f i Ds7Device.obj
 0001:00002620       ?CreateNamedPipe@KDevice@@UAEJVKIrp@@@Z 00012940 f i Ds7Device.obj
 0001:00002670       ?ReadWrite@KDevice@@UAEJVKIrp@@@Z 00012990 f i Ds7Device.obj
 0001:000026c0       ?QueryInformation@KDevice@@UAEJVKIrp@@@Z 000129e0 f i Ds7Device.obj
 0001:00002710       ?SetInformation@KDevice@@UAEJVKIrp@@@Z 00012a30 f i Ds7Device.obj
 0001:00002760       ?QueryEa@KDevice@@UAEJVKIrp@@@Z 00012a80 f i Ds7Device.obj
 0001:000027b0       ?SetEa@KDevice@@UAEJVKIrp@@@Z 00012ad0 f i Ds7Device.obj
 0001:00002800       ?FlushBuffers@KDevice@@UAEJVKIrp@@@Z 00012b20 f i Ds7Device.obj
 0001:00002850       ?QueryVolumeInformation@KDevice@@UAEJVKIrp@@@Z 00012b70 f i Ds7Device.obj
 0001:000028a0       ?SetVolumeInformation@KDevice@@UAEJVKIrp@@@Z 00012bc0 f i Ds7Device.obj
 0001:000028f0       ?DirectoryControl@KDevice@@UAEJVKIrp@@@Z 00012c10 f i Ds7Device.obj
 0001:00002940       ?FileSystemControl@KDevice@@UAEJVKIrp@@@Z 00012c60 f i Ds7Device.obj
 0001:00002990       ?InternalDeviceControl@KDevice@@UAEJVKIrp@@@Z 00012cb0 f i Ds7Device.obj
 0001:000029e0       ?Shutdown@KDevice@@UAEJVKIrp@@@Z 00012d00 f i Ds7Device.obj
 0001:00002a30       ?LockControl@KDevice@@UAEJVKIrp@@@Z 00012d50 f i Ds7Device.obj
 0001:00002a80       ?CreateMailSlot@KDevice@@UAEJVKIrp@@@Z 00012da0 f i Ds7Device.obj
 0001:00002ad0       ?QuerySecurity@KDevice@@UAEJVKIrp@@@Z 00012df0 f i Ds7Device.obj
 0001:00002b20       ?SetSecurity@KDevice@@UAEJVKIrp@@@Z 00012e40 f i Ds7Device.obj
 0001:00002b70       ?DeviceChange@KDevice@@UAEJVKIrp@@@Z 00012e90 f i Ds7Device.obj
 0001:00002bc0       ?QueryQuota@KDevice@@UAEJVKIrp@@@Z 00012ee0 f i Ds7Device.obj
 0001:00002c10       ?SetQuota@KDevice@@UAEJVKIrp@@@Z 00012f30 f i Ds7Device.obj
 0001:00002c60       ?StartIo@KDevice@@UAEXVKIrp@@@Z 00012f80 f i Ds7Device.obj
 0001:00002c70       ?SetLowerDevice@KPnpDevice@@QAEXPAVKPnpLowerDevice@@@Z 00012f90 f i Ds7Device.obj
 0001:00002c90       ?PnpComplete@KIrp@@QAEJPAVKPnpDevice@@JD@Z 00012fb0 f i Ds7Device.obj
 0001:00002cd0       ?PnpPowerCall@KPnpLowerDevice@@QAEJPAVKPnpDevice@@VKIrp@@@Z 00012ff0 f i Ds7Device.obj
 0001:00002d40       ?PnpCall@KLowerDevice@@QAEJPAVKPnpDevice@@VKIrp@@@Z 00013060 f i Ds7Device.obj
 0001:00002d70       ??0KUsbInterface@@QAE@XZ   00013090 f i Ds7Device.obj
 0001:00002da0       ?Initialize@KUsbInterface@@QAEJAAVKUsbLowerDevice@@EEE@Z 000130c0 f i Ds7Device.obj
 0001:00002e40       ??0KUsbLowerDevice@@QAE@XZ 00013160 f i Ds7Device.obj
 0001:00002e90       ??0?$KArray@PAVKUsbInterface@@VKGenericLockNop@@@@QAE@XZ 000131b0 f i Ds7Device.obj
 0001:00002e90       ??0?$KArray@PAVKUsbPipe@@VKGenericLockNop@@@@QAE@XZ 000131b0 f i Ds7Device.obj
 0001:00002ee0       ??0?$KList@UPreconfiguredInterfaceListEntry@@@@QAE@XZ 00013200 f i Ds7Device.obj
 0001:00002f20       ?ListEntryOffset@@YGKPAUPreconfiguredInterfaceListEntry@@@Z 00013240 f i Ds7Device.obj
 0001:00002f30       ?Initialize@KUsbLowerDevice@@QAEJPAVKDevice@@PAU_DEVICE_OBJECT@@@Z 00013250 f i Ds7Device.obj
 0001:00002f70       ?Initialize@?$KArray@PAVKUsbPipe@@VKGenericLockNop@@@@QAEJKKW4_POOL_TYPE@@@Z 00013290 f i Ds7Device.obj
 0001:00002f70       ?Initialize@?$KArray@PAVKUsbInterface@@VKGenericLockNop@@@@QAEJKKW4_POOL_TYPE@@@Z 00013290 f i Ds7Device.obj
 0001:00003020       ??0KUsbPipe@@QAE@XZ        00013340 f i Ds7Device.obj
 0001:00003060       ?MaximumTransferSize@KUsbPipe@@QAEKXZ 00013380 f i Ds7Device.obj
 0001:000030c0       ?SubmitUrb@KUsbPipe@@QAEJVKIrp@@PAU_URB@@P6GJPAU_DEVICE_OBJECT@@PAU_IRP@@PAX@Z4K@Z 000133e0 f i Ds7Device.obj
 0001:00003160       ?UsbLowerDevice@KUsbInterface@@QAEPAVKUsbLowerDevice@@XZ 00013480 f i Ds7Device.obj
 0001:00003160       ?LastError@KRegistryKey@@QAEJXZ 00013480 f i Ds7.obj
 0001:00003180       ?RegisterInterface@KUsbLowerDevice@@QAEJPAVKUsbInterface@@@Z 000134a0 f i Ds7Device.obj
 0001:00003200       ?IsValid@?$KArray@PAVKUsbPipe@@VKGenericLockNop@@@@QAEEXZ 00013520 f i vdw_wdm:kusb.obj
 0001:00003200       ?IsValid@?$KArray@PAVKUsbInterface@@VKGenericLockNop@@@@QAEEXZ 00013520 f i Ds7Device.obj
 0001:00003230       ?InsertNext@?$KArray@PAVKUsbPipe@@VKGenericLockNop@@@@QAEJPAVKUsbPipe@@PAKE@Z 00013550 f i vdw_wdm:kusb.obj
 0001:00003230       ?InsertNext@?$KArray@PAVKUsbInterface@@VKGenericLockNop@@@@QAEJPAVKUsbInterface@@PAKE@Z 00013550 f i Ds7Device.obj
 0001:000032b0       ?Insert@?$KArray@PAVKUsbInterface@@VKGenericLockNop@@@@QAEJHAAPAVKUsbInterface@@E@Z 000135d0 f i Ds7Device.obj
 0001:000032b0       ?Insert@?$KArray@PAVKUsbPipe@@VKGenericLockNop@@@@QAEJHAAPAVKUsbPipe@@E@Z 000135d0 f i vdw_wdm:kusb.obj
 0001:00003320       ?Resize@?$KArray@PAVKUsbInterface@@VKGenericLockNop@@@@QAEJHE@Z 00013640 f i Ds7Device.obj
 0001:00003320       ?Resize@?$KArray@PAVKUsbPipe@@VKGenericLockNop@@@@QAEJHE@Z 00013640 f i vdw_wdm:kusb.obj
 0001:00003440       ??3@YAXPAX@Z               00013760 f i Ds7.obj
 0001:00003440       ??_V@YAXPAX@Z              00013760 f i Ds7Device.obj
 0001:00003460       ?_self_delete@Ds7Device@@UAEXXZ 00013780 f i Ds7Device.obj
 0001:000034a0       ?ReadCompleteLINK@Ds7Device@@SGJPAU_DEVICE_OBJECT@@PAU_IRP@@PAX@Z 000137c0 f i Ds7Device.obj
 0001:000034d0       ?WriteCompleteLINK@Ds7Device@@SGJPAU_DEVICE_OBJECT@@PAU_IRP@@PAX@Z 000137f0 f i Ds7Device.obj
 0001:000034fa       _DbgBreakPoint@0           0001381a f   wdm:NTOSKRNL.EXE
 0001:00003500       ?InitializeCppRunTime@@YGJXZ 00013820 f   vdw_wdm:stcinit.obj
 0001:00003540       ?InitCPP@@YGXXZ            00013860 f   vdw_wdm:stcinit.obj
 0001:00003570       ?TerminateCppRunTime@@YGXXZ 00013890 f   vdw_wdm:stcinit.obj
 0001:000035d0       ??_GAtExitCall@@QAEPAXI@Z  000138f0 f i vdw_wdm:stcinit.obj
 0001:00003600       ??1AtExitCall@@QAE@XZ      00013920 f i vdw_wdm:stcinit.obj
 0001:00003620       _atexit                    00013940 f   vdw_wdm:stcinit.obj
 0001:00003680       ??0AtExitCall@@QAE@P6AXXZ@Z 000139a0 f i vdw_wdm:stcinit.obj
 0001:000036b0       ??0KTrace@@QAE@PADKW4TRACE_LEVEL@@W4BREAK_LEVEL@@PAU_UNICODE_STRING@@PAU_KINTERRUPT@@@Z 000139d0 f   vdw_wdm:ktrace.obj
 0001:0000380a       ?__construct@KTrace@@IAEXPAU_STRING@@PAU_UNICODE_STRING@@PAU_KINTERRUPT@@@Z 00013b2a f   vdw_wdm:ktrace.obj
 0001:000039e6       ?Connect@KTrace@@KGEXZ     00013d06 f   vdw_wdm:ktrace.obj
 0001:00003a90       ??1KLowerDevice@@QAE@XZ    00013db0 f i vdw_wdm:ktrace.obj
 0001:00003b2e       ?Trace@KTrace@@QAAXW4TRACE_LEVEL@@PADZZ 00013e4e f   vdw_wdm:ktrace.obj
 0001:00003da0       ??1KTrace@@QAE@XZ          000140c0 f   vdw_wdm:ktrace.obj
 0001:00003e63       ??6KTrace@@QAEAAV0@VKIrp@@@Z 00014183 f   vdw_wdm:ktrace.obj
 0001:00003f90       ?Urb@KIrp@@QAEAAPAU_URB@@W4EStackLocation@@@Z 000142b0 f i vdw_wdm:kusb.obj
 0001:00003f90       ?WriteSize@KIrp@@QAEAAKW4EStackLocation@@@Z 000142b0 f i Ds7Device.obj
 0001:00003f90       ?IoctlOutputBufferSize@KIrp@@QAEAAKW4EStackLocation@@@Z 000142b0 f i vdw_wdm:ktrace.obj
 0001:00003f90       ?ReadSize@KIrp@@QAEAAKW4EStackLocation@@@Z 000142b0 f i Ds7Device.obj
 0001:00003f90       ?WaitWakePowerState@KIrp@@QAEAAW4_SYSTEM_POWER_STATE@@W4EStackLocation@@@Z 000142b0 f i vdw_wdm:kpnpdev.obj
 0001:00003f90       ?PowerSequence@KIrp@@QAEAAPAU_POWER_SEQUENCE@@W4EStackLocation@@@Z 000142b0 f i vdw_wdm:kpnpdev.obj
 0001:00003f90       ?DeviceCapabilities@KIrp@@QAEAAPAU_DEVICE_CAPABILITIES@@W4EStackLocation@@@Z 000142b0 f i vdw_wdm:kpnpdev.obj
 0001:00003fd0       ?PowerStateType@KIrp@@QAEAAW4_POWER_STATE_TYPE@@W4EStackLocation@@@Z 000142f0 f i vdw_wdm:kpnpdev.obj
 0001:00003fd0       ?IoctlInputBufferSize@KIrp@@QAEAAKW4EStackLocation@@@Z 000142f0 f i vdw_wdm:ktrace.obj
 0001:000042b0       ??1KUstring@@QAE@XZ        000145d0 f i vdw_wdm:kregkey.obj
 0001:000042e0       ??0KUstring@@QAE@PBG@Z     00014600 f i vdw_wdm:kregkey.obj
 0001:00004310       ?Invalidate@KUstring@@QAEXXZ 00014630 f i vdw_wdm:kregkey.obj
 0001:00004360       ??BKUstring@@QAEPAU_UNICODE_STRING@@XZ 00014680 f i vdw_wdm:kregkey.obj
 0001:000043e1       ?DeviceIrpDispatch@KDevice@@UAEJPAU_IRP@@@Z 00014701 f   vdw_wdm:kdevice.obj
 0001:00004440       ??0KUstring@@QAE@W4SpecialCtorParameter@0@@Z 00014760 f i vdw_wdm:kdevice.obj
 0001:00004450       ?_self_delete@KDevice@@UAEXXZ 00014770 f i vdw_wdm:kdevice.obj
 0001:00004490       ?Create@KDevice@@UAEJVKIrp@@@Z 000147b0 f i vdw_wdm:kdevice.obj
 0001:000044e0       ?Close@KDevice@@UAEJVKIrp@@@Z 00014800 f i vdw_wdm:kdevice.obj
 0001:00004530       ?Read@KDevice@@UAEJVKIrp@@@Z 00014850 f i vdw_wdm:kdevice.obj
 0001:00004580       ?Write@KDevice@@UAEJVKIrp@@@Z 000148a0 f i vdw_wdm:kdevice.obj
 0001:000045d0       ?DeviceControl@KDevice@@UAEJVKIrp@@@Z 000148f0 f i vdw_wdm:kdevice.obj
 0001:00004620       ?CleanUp@KDevice@@UAEJVKIrp@@@Z 00014940 f i vdw_wdm:kdevice.obj
 0001:00004670       ?Power@KDevice@@UAEJVKIrp@@@Z 00014990 f i vdw_wdm:kdevice.obj
 0001:000046c0       ?SystemControl@KDevice@@UAEJVKIrp@@@Z 000149e0 f i vdw_wdm:kdevice.obj
 0001:00004710       ?Pnp@KDevice@@UAEJVKIrp@@@Z 00014a30 f i vdw_wdm:kdevice.obj
 0001:00004760       ??_GKDevice@@QAEPAXI@Z     00014a80 f i vdw_wdm:kdevice.obj
 0001:00004790       ??0KUstring@@QAE@XZ        00014ab0 f i vdw_wdm:kdevice.obj
 0001:000047c0       ?MaximumLength@KUstring@@QAEGXZ 00014ae0 f i vdw_wdm:kdevice.obj
 0001:000047e0       ?Append@KUstring@@QAEJPBG@Z 00014b00 f i vdw_wdm:kdevice.obj
 0001:00004820       ?Append@KUstring@@QAEJAAV1@@Z 00014b40 f i vdw_wdm:kdevice.obj
 0001:00004840       ?Length@KUstring@@QAEGXZ   00014b60 f i vdw_wdm:kdevice.obj
 0001:00004860       ?IsRemoved@KPnpDevice@@QAEEXZ 00014b80 f i vdw_wdm:kdevice.obj
 0001:00004880       ??0KUstring@@QAE@PAU_UNICODE_STRING@@E@Z 00014ba0 f i vdw_wdm:kdevice.obj
 0001:000048b0       ?DeviceObject@KLowerDevice@@QAEAAPAU_DEVICE_OBJECT@@XZ 00014bd0 f i vdw_wdm:kdevice.obj
 0001:000048d0       ??_9@$BBM@AE               00014bf0 f i vdw_wdm:kdevice.obj
 0001:000048e0       ??_9@$BHM@AE               00014c00 f i vdw_wdm:kdevice.obj
 0001:000048f0       ??_9@$BFM@AE               00014c10 f i vdw_wdm:kdevice.obj
 0001:00004900       ??_9@$BDM@AE               00014c20 f i vdw_wdm:kdevice.obj
 0001:00004910       ??_9@$BGA@AE               00014c30 f i vdw_wdm:kdevice.obj
 0001:00004920       ??_9@$BEA@AE               00014c40 f i vdw_wdm:kdevice.obj
 0001:00004930       ??_9@$BCA@AE               00014c50 f i vdw_wdm:kdevice.obj
 0001:00004940       ??_9@$BGE@AE               00014c60 f i vdw_wdm:kdevice.obj
 0001:00004950       ??_9@$BEE@AE               00014c70 f i vdw_wdm:kdevice.obj
 0001:00004960       ??_9@$BCE@AE               00014c80 f i vdw_wdm:kdevice.obj
 0001:00004970       ??_9@$BGI@AE               00014c90 f i vdw_wdm:kdevice.obj
 0001:00004980       ??_9@$BEI@AE               00014ca0 f i vdw_wdm:kdevice.obj
 0001:00004990       ??_9@$BCI@AE               00014cb0 f i vdw_wdm:kdevice.obj
 0001:000049a0       ??_9@$B7AE                 00014cc0 f i vdw_wdm:kdevice.obj
 0001:000049b0       ??_9@$BM@AE                00014cd0 f i vdw_wdm:kdevice.obj
 0001:000049c0       ??_9@$BGM@AE               00014ce0 f i vdw_wdm:kdevice.obj
 0001:000049d0       ??_9@$BEM@AE               00014cf0 f i vdw_wdm:kdevice.obj
 0001:000049e0       ??_9@$BCM@AE               00014d00 f i vdw_wdm:kdevice.obj
 0001:000049f0       ??_9@$BHA@AE               00014d10 f i vdw_wdm:kdevice.obj
 0001:00004a00       ??_9@$BFA@AE               00014d20 f i vdw_wdm:kdevice.obj
 0001:00004a10       ??_9@$BDA@AE               00014d30 f i vdw_wdm:kdevice.obj
 0001:00004a20       ??_9@$BBA@AE               00014d40 f i vdw_wdm:kdevice.obj
 0001:00004a30       ??_9@$BHE@AE               00014d50 f i vdw_wdm:kdevice.obj
 0001:00004a40       ??_9@$BFE@AE               00014d60 f i vdw_wdm:kdevice.obj
 0001:00004a50       ??_9@$BDE@AE               00014d70 f i vdw_wdm:kdevice.obj
 0001:00004a60       ??_9@$BBE@AE               00014d80 f i vdw_wdm:kdevice.obj
 0001:00004a70       ??_9@$BHI@AE               00014d90 f i vdw_wdm:kdevice.obj
 0001:00004a80       ??_9@$BFI@AE               00014da0 f i vdw_wdm:kdevice.obj
 0001:00004a90       ??_9@$BDI@AE               00014db0 f i vdw_wdm:kdevice.obj
 0001:00004aa0       ??_9@$BBI@AE               00014dc0 f i vdw_wdm:kdevice.obj
 0001:00004acc       ?Init@BoundsChecker@@YGJPAU_DRIVER_OBJECT@@@Z 00014dec f   vdw_wdm:kchecker.obj
 0001:00004c20       ?UserBuffer@KIrp@@QAEAAPAXXZ 00014f40 f i vdw_wdm:kchecker.obj
 0001:00004c40       ?Allocate@KIrp@@SGPAU_IRP@@D@Z 00014f60 f i vdw_wdm:kchecker.obj
 0001:00004c60       ?Deallocate@KIrp@@SGXPAU_IRP@@@Z 00014f80 f i vdw_wdm:kchecker.obj
 0001:00004c80       ?StackRequirement@KLowerDevice@@QAEDXZ 00014fa0 f i vdw_wdm:kchecker.obj
 0001:00004ca0       ?DummyReportRoutine@BoundsChecker@@YAXKPAU_DRIVER_OBJECT@@ZZ 00014fc0 f   vdw_wdm:kchecker.obj
 0001:00004cb0       ?_CommonInit@KPnpDevice@@IAEJXZ 00014fd0 f   vdw_wdm:kpnpdev.obj
 0001:00004d90       ?TestAndSet@KInterlockedCounter@@QAEJJ@Z 000150b0 f i vdw_wdm:kpnpdev.obj
 0001:00004db0       ??0KPnpDevice@@QAE@PAU_DEVICE_OBJECT@@PBU_GUID@@@Z 000150d0 f   vdw_wdm:kpnpdev.obj
 0001:00004ef0       ??0KInterlockedCounter@@QAE@XZ 00015210 f i vdw_wdm:kpnpdev.obj
 0001:00004f10       ?Reset@KInterlockedCounter@@QAEJXZ 00015230 f i vdw_wdm:kpnpdev.obj
 0001:00004f30       ??0POWER_DEVICE_FLAGS@@QAE@XZ 00015250 f i vdw_wdm:kpnpdev.obj
 0001:00004f30       ??0PNP_DEVICE_FLAGS@@QAE@XZ 00015250 f i vdw_wdm:kpnpdev.obj
 0001:00004f90       ?_self_delete@KPnpDevice@@UAEXXZ 000152b0 f i vdw_wdm:kpnpdev.obj
 0001:00004fd0       ??_GKPnpDevice@@QAEPAXI@Z  000152f0 f i vdw_wdm:kpnpdev.obj
 0001:00005000       ??1KPnpDevice@@QAE@XZ      00015320 f   vdw_wdm:kpnpdev.obj
 0001:000050a0       ??1KEvent@@QAE@XZ          000153c0 f i vdw_wdm:kpnpdev.obj
 0001:000050d0       ??1KDispatcherObject@@IAE@XZ 000153f0 f i vdw_wdm:kpnpdev.obj
 0001:00005100       ?Invalidate@KDispatcherObject@@QAEXXZ 00015420 f i vdw_wdm:kpnpdev.obj
 0001:00005170       ??1KMutex@@QAE@XZ          00015490 f i vdw_wdm:kpnpdev.obj
 0001:00005190       ?SetPnpPolicy@KPnpDevice@@UAEXXZ 000154b0 f   vdw_wdm:kpnpdev.obj
 0001:000056d8       ?DeviceIrpDispatch@KPnpDevice@@UAEJPAU_IRP@@@Z 000159f8 f   vdw_wdm:kpnpdev.obj
 0001:00005d10       ?FileObject@KIrp@@QAEPAU_FILE_OBJECT@@W4EStackLocation@@@Z 00016030 f i vdw_wdm:kpnpdev.obj
 0001:00005d70       ?Wait@KDispatcherObject@@QAEJDEPAT_LARGE_INTEGER@@W4_KWAIT_REASON@@@Z 00016090 f i vdw_wdm:kpnpdev.obj
 0001:00005da0       ?Release@KMutex@@QAEJE@Z   000160c0 f i vdw_wdm:kpnpdev.obj
 0001:00005dc0       ??EKInterlockedCounter@@QAEJXZ 000160e0 f i vdw_wdm:kpnpdev.obj
 0001:00005de0       ??FKInterlockedCounter@@QAEJXZ 00016100 f i vdw_wdm:kpnpdev.obj
 0001:00005e00       ?IndicateBusy@KPnpDevice@@QAEXXZ 00016120 f i vdw_wdm:kpnpdev.obj
 0001:00005f8f       ?Pnp@KPnpDevice@@MAEJVKIrp@@@Z 000162af f   vdw_wdm:kpnpdev.obj
 0001:00007490       ?IsNull@KIrp@@QAEEXZ       000177b0 f i vdw_wdm:kpnpdev.obj
 0001:000074b0       ??1KDeviceQueue@@QAE@XZ    000177d0 f i vdw_wdm:kpnpdev.obj
 0001:000074e0       ??0KDeviceQueue@@QAE@PAU_KDEVICE_QUEUE@@@Z 00017800 f i vdw_wdm:kpnpdev.obj
 0001:00007510       ?Invalidate@KDeviceQueue@@QAEXXZ 00017830 f i vdw_wdm:kpnpdev.obj
 0001:00007580       ?Call@KLowerDevice@@QAEJVKIrp@@@Z 000178a0 f i vdw_wdm:kpnpdev.obj
 0001:000075d0       ?Detach@KDevice@@QAEXPAVKLowerDevice@@@Z 000178f0 f i vdw_wdm:kpnpdev.obj
 0001:00007620       ?DeviceQueue@KDevice@@QAEPAU_KDEVICE_QUEUE@@XZ 00017940 f i vdw_wdm:kpnpdev.obj
 0001:00007640       ?CurrentIrp@KDevice@@QAEAAPAU_IRP@@XZ 00017960 f i vdw_wdm:kpnpdev.obj
 0001:00007660       ?HoldIrp@KPnpDevice@@UAEJVKIrp@@@Z 00017980 f   vdw_wdm:kpnpdev.obj
 0001:00007730       ?Acquire@CancelSpinLock@@SGEXZ 00017a50 f i vdw_wdm:kpnpdev.obj
 0001:00007750       ?Release@CancelSpinLock@@SGXXZ 00017a70 f i vdw_wdm:kpnpdev.obj
 0001:00007770       ?SetCancelRoutine@KIrp@@QAEP6GXPAU_DEVICE_OBJECT@@PAU_IRP@@@ZP6GX01@Z@Z 00017a90 f i vdw_wdm:kpnpdev.obj
 0001:00007790       ?WasCanceled@KIrp@@QAEEE@Z 00017ab0 f i vdw_wdm:kpnpdev.obj
 0001:000077d0       ?CancelHeldIrpLINK@KPnpDevice@@KGXPAU_DEVICE_OBJECT@@PAU_IRP@@@Z 00017af0 f i vdw_wdm:kpnpdev.obj
 0001:00007800       ?CancelHeldIrp@KPnpDevice@@IAEXVKIrp@@@Z 00017b20 f   vdw_wdm:kpnpdev.obj
 0001:00007890       ?Release@CancelSpinLock@@SGXE@Z 00017bb0 f i vdw_wdm:kpnpdev.obj
 0001:000078b0       ?ProcessHeldRequests@KPnpDevice@@UAEXE@Z 00017bd0 f   vdw_wdm:kpnpdev.obj
 0001:000079b0       ?IncrementOutstandingRequestCount@KPnpDevice@@QAEJXZ 00017cd0 f   vdw_wdm:kpnpdev.obj
 0001:00007a70       ?Clear@KEvent@@QAEXXZ      00017d90 f i vdw_wdm:kpnpdev.obj
 0001:00007a90       ?DecrementOutstandingRequestCount@KPnpDevice@@QAEJXZ 00017db0 f   vdw_wdm:kpnpdev.obj
 0001:00007b70       ?Set@KEvent@@QAEEJE@Z      00017e90 f i vdw_wdm:kpnpdev.obj
 0001:00007ba0       ?WaitPowerOff@KPnpDevice@@QAEJ_K@Z 00017ec0 f   vdw_wdm:kpnpdev.obj
 0001:00007c70       ?WaitStop@KPnpDevice@@UAEJ_K@Z 00017f90 f   vdw_wdm:kpnpdev.obj
 0001:00007d60       ?WaitRemove@KPnpDevice@@UAEJ_K@Z 00018080 f   vdw_wdm:kpnpdev.obj
 0001:00007e50       ?CleanUpHeldRequests@KPnpDevice@@QAEXPAU_FILE_OBJECT@@@Z 00018170 f   vdw_wdm:kpnpdev.obj
 0001:00007fbc       ?Power@KPnpDevice@@MAEJVKIrp@@@Z 000182dc f   vdw_wdm:kpnpdev.obj
 0001:000091a0       ?SetCompletionRoutine@KIrp@@QAEXP6GJPAU_DEVICE_OBJECT@@PAU_IRP@@PAX@Z2EEE@Z 000194c0 f i vdw_wdm:kpnpdev.obj
 0001:00009290       ?IoctlCode@KIrp@@QAEAAKW4EStackLocation@@@Z 000195b0 f i Ds7Device.obj
 0001:00009290       ?PowerStateSetting@KIrp@@QAEAAT_POWER_STATE@@W4EStackLocation@@@Z 000195b0 f i vdw_wdm:kpnpdev.obj
 0001:000092d0       ?PowerCall@KPnpLowerDevice@@QAEJVKIrp@@@Z 000195f0 f i vdw_wdm:kpnpdev.obj
 0001:00009360       ?WaitWakeCompletionRoutineLINK@KPnpDevice@@KGJPAU_DEVICE_OBJECT@@PAU_IRP@@PAX@Z 00019680 f i vdw_wdm:kpnpdev.obj
 0001:00009390       ?DevicePowerUpCompleteLINK@KPnpDevice@@KGJPAU_DEVICE_OBJECT@@PAU_IRP@@PAX@Z 000196b0 f i vdw_wdm:kpnpdev.obj
 0001:000093c0       ?OnSystemPowerUp@KPnpDevice@@UAEJVKIrp@@@Z 000196e0 f   vdw_wdm:kpnpdev.obj
 0001:000093c0       ?OnDeviceSleep@KPnpDevice@@UAEJVKIrp@@@Z 000196e0 f   vdw_wdm:kpnpdev.obj
 0001:000093c0       ?OnSystemSleep@KPnpDevice@@UAEJVKIrp@@@Z 000196e0 f   vdw_wdm:kpnpdev.obj
 0001:000093c0       ?OnDevicePowerUp@KPnpDevice@@UAEJVKIrp@@@Z 000196e0 f   vdw_wdm:kpnpdev.obj
 0001:000093d0       ?DevicePowerUpComplete@KPnpDevice@@IAGJVKIrp@@@Z 000196f0 f   vdw_wdm:kpnpdev.obj
 0001:000094a0       ?SetPowerPolicy@KPnpDevice@@UAEXE@Z 000197c0 f   vdw_wdm:kpnpdev.obj
 0001:00009840       ?DetermineNewDevicePowerState@KPnpDevice@@UAE?AW4_DEVICE_POWER_STATE@@W4_SYSTEM_POWER_STATE@@@Z 00019b60 f   vdw_wdm:kpnpdev.obj
 0001:00009880       ?WaitWakeCompletionRoutine@KPnpDevice@@IAGJVKIrp@@@Z 00019ba0 f   vdw_wdm:kpnpdev.obj
 0001:00009993       ?GetDeviceCapabilities@KPnpDevice@@QAEJXZ 00019cb3 f   vdw_wdm:kpnpdev.obj
 0001:00009b74       ?GetPowerSequence@KPnpDevice@@QAEJPAU_POWER_SEQUENCE@@@Z 00019e94 f   vdw_wdm:kpnpdev.obj
 0001:00009c80       ?RequestPowerCompletionCallback@KPnpDevice@@IAGXET_POWER_STATE@@PAUPowerCompletionContext@@PAU_IO_STATUS_BLOCK@@@Z 00019fa0 f   vdw_wdm:kpnpdev.obj
 0001:00009d20       ?RequestWaitWakeCompletionCallback@KPnpDevice@@IAGXET_POWER_STATE@@PAUPowerCompletionContext@@PAU_IO_STATUS_BLOCK@@@Z 0001a040 f   vdw_wdm:kpnpdev.obj
 0001:00009f26       ?RequestDevicePowerIrpWait@KPnpDevice@@QAEJEW4_DEVICE_POWER_STATE@@P6GXPAU_DEVICE_OBJECT@@ET_POWER_STATE@@PAXPAU_IO_STATUS_BLOCK@@@Z@Z 0001a246 f   vdw_wdm:kpnpdev.obj
 0001:0000a0c0       ?RequestPowerCompletionCallbackLINK@KPnpDevice@@KGXPAU_DEVICE_OBJECT@@ET_POWER_STATE@@PAXPAU_IO_STATUS_BLOCK@@@Z 0001a3e0 f i vdw_wdm:kpnpdev.obj
 0001:0000a242       ?RequestDevicePowerIrp@KPnpDevice@@QAEJEW4_DEVICE_POWER_STATE@@P6GXPAU_DEVICE_OBJECT@@ET_POWER_STATE@@PAXPAU_IO_STATUS_BLOCK@@@Z@Z 0001a562 f   vdw_wdm:kpnpdev.obj
 0001:0000a400       ?RequestWaitWakeCompletionCallbackLINK@KPnpDevice@@KGXPAU_DEVICE_OBJECT@@ET_POWER_STATE@@PAXPAU_IO_STATUS_BLOCK@@@Z 0001a720 f i vdw_wdm:kpnpdev.obj
 0001:0000a430       ?CancelWaitWakeIrp@KPnpDevice@@QAEEXZ 0001a750 f   vdw_wdm:kpnpdev.obj
 0001:0000a512       ?RegisterInterface@KPnpDevice@@QAEPAU_UNICODE_STRING@@PBU_GUID@@PAU2@@Z 0001a832 f   vdw_wdm:kpnpdev.obj
 0001:0000a5d0       ??0INTERFACE_LIST_ENTRY@@QAE@PBU_GUID@@@Z 0001a8f0 f i vdw_wdm:kpnpdev.obj
 0001:0000a620       ?EnableInterfaces@KPnpDevice@@QAEXPAU_UNICODE_STRING@@@Z 0001a940 f   vdw_wdm:kpnpdev.obj
 0001:0000a690       ?DisableInterfaces@KPnpDevice@@QAEXPAU_UNICODE_STRING@@@Z 0001a9b0 f   vdw_wdm:kpnpdev.obj
 0001:0000a700       ?OnStartDevice@KPnpDevice@@UAEJVKIrp@@@Z 0001aa20 f   vdw_wdm:kpnpdev.obj
 0001:0000a740       ?OnStopDevice@KPnpDevice@@UAEJVKIrp@@@Z 0001aa60 f   vdw_wdm:kpnpdev.obj
 0001:0000a7a0       ?OnQueryRemoveDevice@KPnpDevice@@UAEJVKIrp@@@Z 0001aac0 f   vdw_wdm:kpnpdev.obj
 0001:0000a800       ?OnRemoveDevice@KPnpDevice@@UAEJVKIrp@@@Z 0001ab20 f   vdw_wdm:kpnpdev.obj
 0001:0000a860       ?OnSurpriseRemoval@KPnpDevice@@UAEJVKIrp@@@Z 0001ab80 f   vdw_wdm:kpnpdev.obj
 0001:0000a8c0       ?OnCancelRemoveDevice@KPnpDevice@@UAEJVKIrp@@@Z 0001abe0 f   vdw_wdm:kpnpdev.obj
 0001:0000a910       ?OnQueryStopDevice@KPnpDevice@@UAEJVKIrp@@@Z 0001ac30 f   vdw_wdm:kpnpdev.obj
 0001:0000a970       ?OnCancelStopDevice@KPnpDevice@@UAEJVKIrp@@@Z 0001ac90 f   vdw_wdm:kpnpdev.obj
 0001:0000a9c0       ?OnQueryDeviceState@KPnpDevice@@UAEJVKIrp@@@Z 0001ace0 f   vdw_wdm:kpnpdev.obj
 0001:0000aa20       ?OnWaitWake@KPnpDevice@@UAEJVKIrp@@@Z 0001ad40 f   vdw_wdm:kpnpdev.obj
 0001:0000aa70       ?OnPowerSequence@KPnpDevice@@UAEJVKIrp@@@Z 0001ad90 f   vdw_wdm:kpnpdev.obj
 0001:0000aac0       ?OnSetPower@KPnpDevice@@UAEJVKIrp@@@Z 0001ade0 f   vdw_wdm:kpnpdev.obj
 0001:0000ab00       ?OnQueryPower@KPnpDevice@@UAEJVKIrp@@@Z 0001ae20 f   vdw_wdm:kpnpdev.obj
 0001:0000ab40       ?OnBusReset@KPnpDevice@@UAEJVKIrp@@@Z 0001ae60 f   vdw_wdm:kpnpdev.obj
 0001:0000ab40       ?OnQueryBusInformation@KPnpDevice@@UAEJVKIrp@@@Z 0001ae60 f   vdw_wdm:kpnpdev.obj
 0001:0000ab40       ?OnDeviceUsageNotification@KPnpDevice@@UAEJVKIrp@@@Z 0001ae60 f   vdw_wdm:kpnpdev.obj
 0001:0000ab40       ?OnWriteConfig@KPnpDevice@@UAEJVKIrp@@@Z 0001ae60 f   vdw_wdm:kpnpdev.obj
 0001:0000ab40       ?OnEject@KPnpDevice@@UAEJVKIrp@@@Z 0001ae60 f   vdw_wdm:kpnpdev.obj
 0001:0000ab40       ?OnReadConfig@KPnpDevice@@UAEJVKIrp@@@Z 0001ae60 f   vdw_wdm:kpnpdev.obj
 0001:0000ab40       ?OnQueryResourceRequirements@KPnpDevice@@UAEJVKIrp@@@Z 0001ae60 f   vdw_wdm:kpnpdev.obj
 0001:0000ab40       ?OnFilterResourceRequirements@KPnpDevice@@UAEJVKIrp@@@Z 0001ae60 f   vdw_wdm:kpnpdev.obj
 0001:0000ab40       ?OnQueryInterface@KPnpDevice@@UAEJVKIrp@@@Z 0001ae60 f   vdw_wdm:kpnpdev.obj
 0001:0000ab40       ?OnSetLock@KPnpDevice@@UAEJVKIrp@@@Z 0001ae60 f   vdw_wdm:kpnpdev.obj
 0001:0000ab40       ?OnQueryDeviceRelations@KPnpDevice@@UAEJVKIrp@@@Z 0001ae60 f   vdw_wdm:kpnpdev.obj
 0001:0000ab40       ?OnQueryDeviceText@KPnpDevice@@UAEJVKIrp@@@Z 0001ae60 f   vdw_wdm:kpnpdev.obj
 0001:0000ab40       ?OnQueryId@KPnpDevice@@UAEJVKIrp@@@Z 0001ae60 f   vdw_wdm:kpnpdev.obj
 0001:0000ab40       ?OnQueryResources@KPnpDevice@@UAEJVKIrp@@@Z 0001ae60 f   vdw_wdm:kpnpdev.obj
 0001:0000ab40       ?OnQueryCapabilities@KPnpDevice@@UAEJVKIrp@@@Z 0001ae60 f   vdw_wdm:kpnpdev.obj
 0001:0000ab60       ??0?$KInterlockedList@U_IRP@@@@QAE@XZ 0001ae80 f i vdw_wdm:kpnpdev.obj
 0001:0000aba0       ?ListEntryOffset@@YGKPAU_IRP@@@Z 0001aec0 f i vdw_wdm:kpnpdev.obj
 0001:0000abb0       ?InsertTail@?$KInterlockedList@U_IRP@@@@QAEXPAU_IRP@@@Z 0001aed0 f i vdw_wdm:kpnpdev.obj
 0001:0000abe0       ?Remove@?$KInterlockedList@U_IRP@@@@QAEPAU_IRP@@PAU2@@Z 0001af00 f i vdw_wdm:kpnpdev.obj
 0001:0000ac20       ?RemoveHead@?$KInterlockedList@U_IRP@@@@QAEPAU_IRP@@XZ 0001af40 f i vdw_wdm:kpnpdev.obj
 0001:0000ac50       ?IsEmpty@?$KInterlockedList@U_IRP@@@@QAEEXZ 0001af70 f i vdw_wdm:kpnpdev.obj
 0001:0000ac80       ?Lock@?$KInterlockedList@U_IRP@@@@QAEXXZ 0001afa0 f i vdw_wdm:kpnpdev.obj
 0001:0000acb0       ?Unlock@?$KInterlockedList@U_IRP@@@@QAEXXZ 0001afd0 f i vdw_wdm:kpnpdev.obj
 0001:0000acd0       ??0?$KList@UINTERFACE_LIST_ENTRY@@@@QAE@XZ 0001aff0 f i vdw_wdm:kpnpdev.obj
 0001:0000ad10       ?RemoveHead@?$KList@UINTERFACE_LIST_ENTRY@@@@QAEPAUINTERFACE_LIST_ENTRY@@XZ 0001b030 f i vdw_wdm:kpnpdev.obj
 0001:0000ad50       ?Lock@KGenericLockNop@@QAEXXZ 0001b070 f i Ds7Device.obj
 0001:0000ad50       ?Lock@?$KList@UINTERFACE_LIST_ENTRY@@@@UAEXXZ 0001b070 f i vdw_wdm:kpnpdev.obj
 0001:0000ad50       ?Lock@?$KList@UPreconfiguredInterfaceListEntry@@@@UAEXXZ 0001b070 f i Ds7Device.obj
 0001:0000ad50       ?Unlock@?$KList@UINTERFACE_LIST_ENTRY@@@@UAEXXZ 0001b070 f i vdw_wdm:kpnpdev.obj
 0001:0000ad50       ?Unlock@KGenericLockNop@@QAEXXZ 0001b070 f i Ds7Device.obj
 0001:0000ad50       ?Unlock@?$KList@UPreconfiguredInterfaceListEntry@@@@UAEXXZ 0001b070 f i Ds7Device.obj
 0001:0000ad60       ?ListEntryOffset@@YGKPAUINTERFACE_LIST_ENTRY@@@Z 0001b080 f i vdw_wdm:kpnpdev.obj
 0001:0000adf0       ?SubmitUrb@KUsbLowerDevice@@QAEJPAU_URB@@P6GJPAU_DEVICE_OBJECT@@PAU_IRP@@PAX@Z3K@Z 0001b110 f   vdw_wdm:kusb.obj
 0001:0000b1b0       ?MaxInserted@?$KArray@PAVKUsbPipe@@VKGenericLockNop@@@@QAEHXZ 0001b4d0 f i vdw_wdm:kusb.obj
 0001:0000b1b0       ?MaxInserted@?$KArray@PAVKUsbInterface@@VKGenericLockNop@@@@QAEHXZ 0001b4d0 f i vdw_wdm:kusb.obj
 0001:0000b1b0       ?PDO@KPnpLowerDevice@@QAEPAU_DEVICE_OBJECT@@XZ 0001b4d0 f i vdw_wdm:kusb.obj
 0001:0000b1d0       ?SyncCompleteSubmitUrb@KUsbLowerDevice@@KGJPAU_DEVICE_OBJECT@@PAU_IRP@@PAX@Z 0001b4f0 f   vdw_wdm:kusb.obj
 0001:0000b240       ?AsyncCompleteSubmitUrb@KUsbLowerDevice@@KGJPAU_DEVICE_OBJECT@@PAU_IRP@@PAX@Z 0001b560 f   vdw_wdm:kusb.obj
 0001:0000b350       ?SubmitUrb@KUsbLowerDevice@@QAEJVKIrp@@PAU_URB@@P6GJPAU_DEVICE_OBJECT@@PAU_IRP@@PAX@Z4K@Z 0001b670 f   vdw_wdm:kusb.obj
 0001:0000b5f0       ??1KUsbLowerDevice@@QAE@XZ 0001b910 f   vdw_wdm:kusb.obj
 0001:0000b630       ??1KPnpLowerDevice@@QAE@XZ 0001b950 f i vdw_wdm:kusb.obj
 0001:0000b650       ?ReleaseResources@KUsbLowerDevice@@QAEXXZ 0001b970 f   vdw_wdm:kusb.obj
 0001:0000b780       ?GetDeviceDescriptor@KUsbLowerDevice@@QAEJPAU_USB_DEVICE_DESCRIPTOR@@@Z 0001baa0 f   vdw_wdm:kusb.obj
 0001:0000b82e       ?Preconfigure@KUsbLowerDevice@@QAEJEK@Z 0001bb4e f   vdw_wdm:kusb.obj
 0001:0000b965       ?LocateInterface@KUsbLowerDevice@@QAEPAU_USB_INTERFACE_DESCRIPTOR@@PAPAXPAPAU_USB_ENDPOINT_DESCRIPTOR@@JJJJJ@Z 0001bc85 f   vdw_wdm:kusb.obj
 0001:0000ba56       ?PreconfigureInterface@KUsbLowerDevice@@QAEJPAU_USB_INTERFACE_DESCRIPTOR@@@Z 0001bd76 f   vdw_wdm:kusb.obj
 0001:0000baf0       ?NumberOfPipes@KUsbInterface@@QAEKXZ 0001be10 f i vdw_wdm:kusb.obj
 0001:0000bb40       ?Pipes@KUsbInterface@@QAEPAU_USBD_PIPE_INFORMATION@@H@Z 0001be60 f i vdw_wdm:kusb.obj
 0001:0000bd02       ?ActivateConfiguration@KUsbLowerDevice@@QAE?AW4AC_STATUS@@EK@Z 0001c022 f   vdw_wdm:kusb.obj
 0001:0000c160       ?Open@KUsbPipe@@QAEJAAVKUsbInterface@@@Z 0001c480 f i vdw_wdm:kusb.obj
 0001:0000c1e0       ?Close@KUsbPipe@@QAEXXZ    0001c500 f i vdw_wdm:kusb.obj
 0001:0000c210       ?Open@KUsbInterface@@QAEJXZ 0001c530 f i vdw_wdm:kusb.obj
 0001:0000c2e0       ?IsOpen@KUsbPipe@@QAEEXZ   0001c600 f i Ds7Device.obj
 0001:0000c2e0       ?IsValid@KUsbInterface@@QAEEXZ 0001c600 f i vdw_wdm:kusb.obj
 0001:0000c300       ?Close@KUsbInterface@@QAEXXZ 0001c620 f i vdw_wdm:kusb.obj
 0001:0000c479       ?Configure@KUsbLowerDevice@@IAEJAAV?$KArray@PAVKUsbPipe@@VKGenericLockNop@@@@PAU_USB_ENDPOINT_DESCRIPTOR@@@Z 0001c799 f   vdw_wdm:kusb.obj
 0001:0000c970       ?InitializePreConfiguredInterface@KUsbLowerDevice@@IAEXPAU_USB_INTERFACE_DESCRIPTOR@@PAUPreconfiguredInterfaceListEntry@@@Z 0001cc90 f   vdw_wdm:kusb.obj
 0001:0000cb73       ?DeActivateConfiguration@KUsbLowerDevice@@QAEJP6GJPAU_DEVICE_OBJECT@@PAU_IRP@@PAX@Z2@Z 0001ce93 f   vdw_wdm:kusb.obj
 0001:0000cd3d       ?Unconfigure@KUsbLowerDevice@@QAEJP6GJPAU_DEVICE_OBJECT@@PAU_IRP@@PAX@Z2@Z 0001d05d f   vdw_wdm:kusb.obj
 0001:0000cee5       ?Initialize@KUsbPipe@@QAEJAAVKUsbLowerDevice@@EK@Z 0001d205 f   vdw_wdm:kusb.obj
 0001:0000cfc2       ?RegisterPipe@KUsbLowerDevice@@QAEJPAVKUsbPipe@@@Z 0001d2e2 f   vdw_wdm:kusb.obj
 0001:0000d040       ??CKIrp@@QAEPAU_IRP@@XZ    0001d360 f i Ds7Device.obj
 0001:0000d040       ??BKIrp@@QAEPAU_IRP@@XZ    0001d360 f i Ds7.obj
 0001:0000d040       ??BKMemory@@QAEPAU_MDL@@XZ 0001d360 f i vdw_wdm:kusb.obj
 0001:0000d040       ?ConstructorStatus@KLowerDevice@@QAEJXZ 0001d360 f i vdw_wdm:ktrace.obj
 0001:0000d040       ?Test@KInterlockedCounter@@QAEJXZ 0001d360 f i vdw_wdm:kpnpdev.obj
 0001:0000d040       ??BKUnitizedName@@QAEPBGXZ 0001d360 f i Ds7.obj
 0001:0000d0e4       ?BuildBulkTransfer@KUsbPipe@@QAEPAU_URB@@AAVKMemory@@KEPAU2@E1@Z 0001d404 f   vdw_wdm:kusb.obj
 0001:0000d210       ?Invalidate@?$KArray@PAVKUsbInterface@@VKGenericLockNop@@@@QAEXXZ 0001d530 f i vdw_wdm:kusb.obj
 0001:0000d210       ?Invalidate@?$KArray@PAVKUsbPipe@@VKGenericLockNop@@@@QAEXXZ 0001d530 f i vdw_wdm:kusb.obj
 0001:0000d270       ??A?$KArray@PAVKUsbInterface@@VKGenericLockNop@@@@QAEAAPAVKUsbInterface@@H@Z 0001d590 f i vdw_wdm:kusb.obj
 0001:0000d270       ??A?$KArray@PAVKUsbPipe@@VKGenericLockNop@@@@QAEAAPAVKUsbPipe@@H@Z 0001d590 f i vdw_wdm:kusb.obj
 0001:0000d2e0       ??1?$KArray@PAVKUsbPipe@@VKGenericLockNop@@@@QAE@XZ 0001d600 f i vdw_wdm:kusb.obj
 0001:0000d2e0       ??1?$KArray@PAVKUsbInterface@@VKGenericLockNop@@@@QAE@XZ 0001d600 f i vdw_wdm:kusb.obj
 0001:0000d310       ?Head@?$KList@UINTERFACE_LIST_ENTRY@@@@QAEPAUINTERFACE_LIST_ENTRY@@XZ 0001d630 f i vdw_wdm:kpnpdev.obj
 0001:0000d310       ?Head@?$KList@UPreconfiguredInterfaceListEntry@@@@QAEPAUPreconfiguredInterfaceListEntry@@XZ 0001d630 f i vdw_wdm:kusb.obj
 0001:0000d350       ?Next@?$KList@UINTERFACE_LIST_ENTRY@@@@QAEPAUINTERFACE_LIST_ENTRY@@PAU2@@Z 0001d670 f i vdw_wdm:kpnpdev.obj
 0001:0000d350       ?Next@?$KList@UPreconfiguredInterfaceListEntry@@@@QAEPAUPreconfiguredInterfaceListEntry@@PAU2@@Z 0001d670 f i vdw_wdm:kusb.obj
 0001:0000d390       ?InsertTail@?$KList@UINTERFACE_LIST_ENTRY@@@@QAEXPAUINTERFACE_LIST_ENTRY@@@Z 0001d6b0 f i vdw_wdm:kpnpdev.obj
 0001:0000d390       ?InsertTail@?$KList@UPreconfiguredInterfaceListEntry@@@@QAEXPAUPreconfiguredInterfaceListEntry@@@Z 0001d6b0 f i vdw_wdm:kusb.obj
 0001:0000d3d0       ?Count@?$KList@UPreconfiguredInterfaceListEntry@@@@QAEKXZ 0001d6f0 f i vdw_wdm:kusb.obj
 0001:0000d410       ?Reset@?$KList@UPreconfiguredInterfaceListEntry@@@@QAEXXZ 0001d730 f i vdw_wdm:kusb.obj
 0001:0000d440       ??BKDevice@@QAEPAU_DEVICE_OBJECT@@XZ 0001d760 f i vdw_wdm:kpnplow.obj
 0001:0000d4c8       ?Initialize@KPnpLowerDevice@@QAEJPAVKDevice@@PAU_DEVICE_OBJECT@@@Z 0001d7e8 f   vdw_wdm:kpnplow.obj
 0001:0000d580       ??0KPnpLowerDevice@@QAE@XZ 0001d8a0 f   vdw_wdm:kpnplow.obj
 0001:0000d614       ?PowerCallWaitComplete@KPnpLowerDevice@@QAEJVKIrp@@EPAK@Z 0001d934 f   vdw_wdm:kpnplow.obj
 0001:0000d740       ??0_listcore@@IAE@K@Z      0001da60 f   vdw_wdm:klist.obj
 0001:0000d770       _InitializeListHead@4      0001da90 f i vdw_wdm:klist.obj
 0001:0000d790       ?_head@_listcore@@QAEPAXXZ 0001dab0 f   vdw_wdm:klist.obj
 0001:0000d7c0       ?Container@_listcore@@QAEPAXPAU_LIST_ENTRY@@@Z 0001dae0 f i vdw_wdm:klist.obj
 0001:0000d7f0       ?_insertTail@_listcore@@QAEXPAX@Z 0001db10 f   vdw_wdm:klist.obj
 0001:0000d820       _InsertTailList@8          0001db40 f i vdw_wdm:klist.obj
 0001:0000d860       ?ListEntryPointer@_listcore@@QAEPAU_LIST_ENTRY@@PAX@Z 0001db80 f i vdw_wdm:klist.obj
 0001:0000d880       ?_next@_listcore@@QAEPAXPAX@Z 0001dba0 f   vdw_wdm:klist.obj
 0001:0000d8d0       ?_remove@_listcore@@QAEPAXPAX@Z 0001dbf0 f   vdw_wdm:klist.obj
 0001:0000d900       _RemoveEntryList@4         0001dc20 f i vdw_wdm:klist.obj
 0001:0000d930       ?_isEmpty@_listcore@@QAEEXZ 0001dc50 f   vdw_wdm:klist.obj
 0001:0000d950       ?_removeHead@_listcore@@QAEPAXXZ 0001dc70 f   vdw_wdm:klist.obj
 0001:0000d990       _RemoveHeadList@4          0001dcb0 f i vdw_wdm:klist.obj
 0001:0000d9c0       ?_count@_listcore@@QAEKXZ  0001dce0 f   vdw_wdm:klist.obj
 0001:0000da10       ?_reset@_listcore@@QAEXXZ  0001dd30 f   vdw_wdm:klist.obj
 0001:0000da30       ??0KLowerDevice@@QAE@XZ    0001dd50 f   vdw_wdm:klower.obj
 0001:0000da60       ??0KLowerDevice@@QAE@PBGK@Z 0001dd80 f   vdw_wdm:klower.obj
 0001:0000db64       ?CallWaitComplete@KLowerDevice@@QAEJVKIrp@@EPAK@Z 0001de84 f   vdw_wdm:klower.obj
 0001:0000dc90       ?SynchCallCompletionRoutine@KLowerDevice@@KGJPAU_DEVICE_OBJECT@@PAU_IRP@@PAX@Z 0001dfb0 f   vdw_wdm:klower.obj
 0001:0000dd40       ?DeviceIoControl@KLowerDevice@@QAEJKPAXK0KEPAK@Z 0001e060 f   vdw_wdm:klower.obj
 0001:0000de60       ?ustrlen@@YGKPBG@Z         0001e180 f   vdw_wdm:util.obj
 0001:0000dea0       ?ustrsiz@@YGKPBG@Z         0001e1c0 f   vdw_wdm:util.obj
 0001:0000dec0       ?GetObjectName@@YGPAU_UNICODE_STRING@@PAX@Z 0001e1e0 f   vdw_wdm:util.obj
 0001:0000df00       ??0KUstring@@QAE@GW4_POOL_TYPE@@@Z 0001e220 f   vdw_wdm:kustring.obj
 0001:0000df70       ?Assign@KUstring@@QAEJAAV1@@Z 0001e290 f   vdw_wdm:kustring.obj
 0001:0000dfc0       ?Assign@KUstring@@QAEJPBG@Z 0001e2e0 f   vdw_wdm:kustring.obj
 0001:0000e020       ?GrowMaxBy@KUstring@@QAEJGW4_POOL_TYPE@@@Z 0001e340 f   vdw_wdm:kustring.obj
 0001:0000e0d0       ?Invalidate@KEvent@@QAEXXZ 0001e3f0 f   vdw_wdm:kevent.obj
 0001:0000e110       ??0KDispatcherObject@@IAE@PAXE@Z 0001e430 f i vdw_wdm:kevent.obj
 0001:0000e150       ?RemoveSpecificEntry@KDeviceQueue@@QAEEPAU_IRP@@@Z 0001e470 f i vdw_wdm:kdevque.obj
 0001:0000e170       ?_lock@KDeviceQueue@@QAEEE@Z 0001e490 f i vdw_wdm:kdevque.obj
 0001:0000e1a0       ??0KSpinLock@@QAE@PAK@Z    0001e4c0 f i vdw_wdm:kdevque.obj
 0001:0000e1c0       ?_lock@KSpinLock@@QAEEE@Z  0001e4e0 f i vdw_wdm:kdevque.obj
 0001:0000e200       ?_unlock@KDeviceQueue@@QAEXE@Z 0001e520 f i vdw_wdm:kdevque.obj
 0001:0000e230       ?_unlock@KSpinLock@@QAEXE@Z 0001e550 f i vdw_wdm:kdevque.obj
 0001:0000e270       ?Head@KDeviceQueue@@QAEPAU_IRP@@XZ 0001e590 f i vdw_wdm:kdevque.obj
 0001:0000e290       ?Tail@KDeviceQueue@@QAEPAU_IRP@@XZ 0001e5b0 f i vdw_wdm:kdevque.obj
 0001:0000e2b0       ?Next@KDeviceQueue@@QAEPAU_IRP@@PAU2@@Z 0001e5d0 f i vdw_wdm:kdevque.obj
 0001:0000e2f0       ?Container@KDeviceQueue@@IAEPAU_IRP@@PAU_KDEVICE_QUEUE_ENTRY@@@Z 0001e610 f i vdw_wdm:kdevque.obj
 0001:0000e320       ?PnpCleanUp@KDeviceQueue@@QAEXPAVKPnpDevice@@PAU_FILE_OBJECT@@@Z 0001e640 f   vdw_wdm:kdevque.obj
 0001:0000e498       _memmove                   0001e7b8 f   wdm:NTOSKRNL.EXE
 0001:0000e49e       _strchr                    0001e7be f   wdm:NTOSKRNL.EXE
 0001:0000e4a4       __vsnprintf                0001e7c4 f   wdm:NTOSKRNL.EXE
 0001:0000e4aa       _DbgPrint                  0001e7ca f   wdm:NTOSKRNL.EXE
 0001:0000e4b0       __allmul                   0001e7d0 f   wdm:llmul.obj
 0002:00000000       ?____CR@@3PADA             0001e860     Ds7.obj
 0002:00000004       ?DefaultPoolTag@@3KA       0001e864     Ds7.obj
 0002:00000008       ?Ds7Device_Guid@@3U_GUID@@A 0001e868     Ds7Device.obj
 0002:0000007c       ?ScratchBufferIndex@@3JA   0001e8dc     vdw_wdm:ktrace.obj
 0002:000000f8       ?IrpDispatchTable@@3PAP8KDevice@@AEJVKIrp@@@ZA 0001e958     vdw_wdm:kdevice.obj
 0002:00000170       ?m_TheDriver@KDriver@@1PAV1@A 0001e9d0     Ds7.obj
 0002:00000174       ?m_bFilterDispatch@KDriver@@1EA 0001e9d4     Ds7.obj
 0002:00000178       ?m_DriverClass@KDriver@@2U_UNICODE_STRING@@A 0001e9d8     Ds7.obj
 0002:00000180       ?_bWindows98_@@3EA         0001e9e0     Ds7.obj
 0002:00000184       ?t@@3VKTrace@@A            0001e9e4     Ds7.obj
 0002:000001ac       ?m_ListHead@AtExitCall@@2PAV1@A 0001ea0c     vdw_wdm:stcinit.obj
 0002:000001b0       ?m_Status@AtExitCall@@2JA  0001ea10     vdw_wdm:stcinit.obj
 0002:000001b8       ?ScratchBuffers@@3PAUKTRACESCRATCHBUFFER@@A 0001ea18     vdw_wdm:ktrace.obj
 0002:000005b8       ?m_Open@KTrace@@1P6GPAXPAU_UNICODE_STRING@@PAU_KINTERRUPT@@K@ZA 0001ee18     vdw_wdm:ktrace.obj
 0002:000005bc       ?m_Post@KTrace@@1P6GXPAXPAD@ZA 0001ee1c     vdw_wdm:ktrace.obj
 0002:000005c0       ?m_Close@KTrace@@1P6GXPAX@ZA 0001ee20     vdw_wdm:ktrace.obj
 0002:000005c4       ?DriverInstance@BoundsChecker@@3PAVKDriver@@A 0001ee24     vdw_wdm:kchecker.obj
 0002:000005c8       ?BchkdInfo@BoundsChecker@@3UBchkdInfo_t@@A 0001ee28     vdw_wdm:kchecker.obj
 0002:000005dc       ?m_DummyEvent@KLowerDevice@@1U_KEVENT@@A 0001ee3c     vdw_wdm:klower.obj
 0002:000005ec       ?m_PreviousState@CancelSpinLock@@1EA 0001ee4c     vdw_wdm:kspin.obj
 0003:00000000       ?___StartInitCalls__@@3PAP6GXXZA 0001ee60     vdw_wdm:stcinit.obj
 0003:00000008       ?___EndInitCalls__@@3PAP6GXXZA 0001ee68     vdw_wdm:stcinit.obj
 0004:00000000       ?___StlStartInitCalls__@@3PAP6GXXZA 0001ee80     vdw_wdm:stcinit.obj
 0004:00000004       ?___StlEndInitCalls__@@3PAP6GXXZA 0001ee84     vdw_wdm:stcinit.obj
 0004:00000008       ?___StlStartTerminateCalls__@@3PAP6GXXZA 0001ee88     vdw_wdm:stcinit.obj
 0004:0000000c       ?___StlEndTerminateCalls__@@3PAP6GXXZA 0001ee8c     vdw_wdm:stcinit.obj
 0005:00000067       ?UnloadDispatch@KDriver@@KGXPAU_DRIVER_OBJECT@@@Z 0001ef07 f   Ds7.obj
 0005:00000100       ?Unload@KDriver@@UAEXXZ    0001efa0 f   Ds7.obj
 0005:00000120       ?_DeleteDeviceChain@@YGXPAU_DEVICE_OBJECT@@@Z 0001efc0 f   Ds7.obj
 0005:00000160       ?DeleteDevices@KDriver@@QAEXXZ 0001f000 f   Ds7.obj
 0005:000001f4       ??0KRegistryKey@@QAE@PAU_UNICODE_STRING@@PBGEKKK@Z 0001f094 f   vdw_wdm:kregkey.obj
 0005:00000314       ??0KRegistryKey@@QAE@W4__registryRoot@@PBGEKKK@Z 0001f1b4 f   vdw_wdm:kregkey.obj
 0005:0000045e       ?Reconstruct@KRegistryKey@@QAEJPAU_UNICODE_STRING@@0KKEK@Z 0001f2fe f   vdw_wdm:kregkey.obj
 0005:0000079d       ?QueryValue@KRegistryKey@@QAEJPBGPAKAAKPAX@Z 0001f63d f   vdw_wdm:kregkey.obj
 0005:00000984       ?QueryValue@KRegistryKey@@QAEJPBGPAK@Z 0001f824 f   vdw_wdm:kregkey.obj
 0005:00000c42       ?GetRootPath@KRegistryKey@@SGPAU_UNICODE_STRING@@PAU2@W4__registryRoot@@@Z 0001fae2 f   vdw_wdm:kregkey.obj
 0005:00000d00       ??0KDevice@@QAE@XZ         0001fba0 f   vdw_wdm:kdevice.obj
 0005:00000d60       ?CatNames@@YGJAAVKUstring@@PBG1W4_POOL_TYPE@@@Z 0001fc00 f   vdw_wdm:kdevice.obj
 0005:00000de0       ??1KDevice@@QAE@XZ         0001fc80 f   vdw_wdm:kdevice.obj
 0005:00000f20       ??2KDevice@@SAPAXIPBGK0KK@Z 0001fdc0 f   vdw_wdm:kdevice.obj
 0005:00000f70       ??3KDevice@@SAXPAX@Z       0001fe10 f   vdw_wdm:kdevice.obj
 0005:00001016       ?__construct@KDevice@@KGPAV1@PAV1@KPBGK1KKAAJ@Z 0001feb6 f   vdw_wdm:kdevice.obj
 0005:000013e0       ?CheckDriverFunctions@KDevice@@IAEXXZ 00020280 f   vdw_wdm:kdevice.obj
 0005:00001460       ?SubscribeShutdownNotification@KDevice@@QAEJXZ 00020300 f   vdw_wdm:kdevice.obj
 0005:00001480       ?CancelShutdownNotification@KDevice@@QAEXXZ 00020320 f   vdw_wdm:kdevice.obj
 0005:00001490       ??0KUnitizedName@@QAE@PBGKK@Z 00020330 f   vdw_wdm:kunitnam.obj
 0005:00001618       ?__construct@KUnitizedName@@IAEXPAU_UNICODE_STRING@@@Z 000204b8 f   vdw_wdm:kunitnam.obj
 0005:00001770       ?Invalidate@KUnitizedName@@QAEXXZ 00020610 f   vdw_wdm:kunitnam.obj
 0005:000017b0       ?NextUnit@KUnitizedName@@QAEXXZ 00020650 f   vdw_wdm:kunitnam.obj
 0005:000018a4       ??0KEvent@@QAE@W4_EVENT_TYPE@@E@Z 00020744 f   vdw_wdm:kevent.obj
 0005:000019a4       ??0KMutex@@QAE@K@Z         00020844 f   vdw_wdm:kmutex.obj
 0006:00000000       ?__create_driver_class_instance@@YGXXZ 000208c0 f   Ds7.obj
 0006:00000040       ??0Ds7@@QAE@XZ             00020900 f i Ds7.obj
 0006:000000c6       ?DriverEntry@Ds7@@UAEJPAU_UNICODE_STRING@@@Z 00020986 f   Ds7.obj
 0006:000001b9       ?LoadRegistryParameters@Ds7@@QAEXAAVKRegistryKey@@@Z 00020a79 f   Ds7.obj
 0006:000002ce       _DriverEntry@8             00020b8e f   Ds7.obj
 0006:000004c4       ??0KDriver@@QAE@XZ         00020d84 f   Ds7.obj
 0006:00000520       ?DriverInit@KDriver@@SGJPAU_DRIVER_OBJECT@@PAU_UNICODE_STRING@@@Z 00020de0 f   Ds7.obj
 0006:000006b0       ?SetUpDispatchCalls@KDriver@@IAEXXZ 00020f70 f   Ds7.obj
 0006:00000788       __IMPORT_DESCRIPTOR_NTOSKRNL 00021048     wdm:NTOSKRNL.EXE
 0006:0000079c       __IMPORT_DESCRIPTOR_USBD   0002105c     usbd:USBD.SYS
 0006:000007b0       __IMPORT_DESCRIPTOR_HAL    00021070     wdm:HAL.DLL
 0006:000007c4       __NULL_IMPORT_DESCRIPTOR   00021084     wdm:NTOSKRNL.EXE

 entry point at        0000:00000000

 Static symbols

 0001:0000e4f4       _$E1                       0001e814 f   Ds7.obj
 0001:0000e520       _$E2                       0001e840 f   Ds7.obj
 0001:00004288       ?GetIrpName@@YGPADK@Z      000145a8 f   vdw_wdm:ktrace.obj
